target datalayout = "e-m:e-p270:32:32-p271:32:32-p272:64:64-i64:64-i128:128-f80:128-n8:16:32:64-S128"
target triple = "x86_64-pc-linux-gnu"

; Function Attrs: mustprogress nounwind uwtable
define hidden noundef double @_ZN5osgeo4proj8internal28getRoundedEpochInDecimalYearEd(double noundef %0) #2 {
  %2 = alloca double, align 8
  store double %0, ptr %2, align 8, !tbaa !22
  %3 = load double, ptr %2, align 8, !tbaa !22
  %4 = load double, ptr %2, align 8, !tbaa !22
  %5 = fmul double 1.000000e+03, %4
  %6 = call double @llvm.round.f64(double %5)
  %7 = fneg double %6
  %8 = call double @llvm.fmuladd.f64(double 1.000000e+03, double %3, double %7)
  %9 = call double @llvm.fabs.f64(double %8)
  %10 = fcmp ole double %9, 1.000000e-03
  br i1 %10, label %11, label %16

11:                                               ; preds = %1
  %12 = load double, ptr %2, align 8, !tbaa !22
  %13 = fmul double 1.000000e+03, %12
  %14 = call double @llvm.round.f64(double %13)
  %15 = fdiv double %14, 1.000000e+03
  store double %15, ptr %2, align 8, !tbaa !22
  br label %16

16:                                               ; preds = %11, %1
  %17 = load double, ptr %2, align 8, !tbaa !22
  ret double %17
}