; Function Attrs: mustprogress nofree norecurse nosync nounwind willreturn memory(none) uwtable
define hidden noundef double @_ZN5osgeo4proj8internal28getRoundedEpochInDecimalYearEd(double noundef %0) local_unnamed_addr #10 {
  %2 = fmul double %0, 1.000000e+03
  %3 = tail call double @llvm.round.f64(double %2)
  %4 = fneg double %3
  %5 = tail call double @llvm.fmuladd.f64(double %0, double 1.000000e+03, double %4)
  %6 = tail call double @llvm.fabs.f64(double %5)
  %7 = fcmp ugt double %6, 1.000000e-03
  %8 = fdiv double %3, 1.000000e+03
  %.0 = select i1 %7, double %0, double %8
  ret double %.0
}